target datalayout = "e-m:e-p270:32:32-p271:32:32-p272:64:64-i64:64-i128:128-f80:128-n8:16:32:64-S128"
target triple = "x86_64-pc-linux-gnu"

%struct.ggml_backend = type { ptr, %struct.ggml_backend_i, ptr, ptr }
%struct.ggml_backend_i = type { ptr, ptr, ptr, ptr, ptr, ptr, ptr, ptr, ptr, ptr, ptr, ptr, ptr }
%struct.ggml_hash_set = type { i64, ptr, ptr }
%struct.ggml_backend_sched = type { i8, i8, i32, [16 x ptr], [16 x ptr], ptr, %struct.ggml_hash_set, ptr, ptr, ptr, ptr, ptr, ptr, %struct.ggml_cgraph, ptr, i32, i32, i32, i32, [16 x [4 x ptr]], [10 x ptr], i32, ptr, ptr, ptr, ptr, i64, i32 }
%struct.ggml_cgraph = type { i32, i32, i32, ptr, ptr, ptr, ptr, %struct.ggml_hash_set, i32 }

@.str = private unnamed_addr constant [123 x i8] c"generated/home/dtcxzyw/WorkSpace/Projects/compilers/llvm-opt-benchmark/bench/llama.cpp/llama.cpp/ggml/src/ggml-backend.cpp\00", align 1
@.str.1 = private unnamed_addr constant [23 x i8] c"GGML_ASSERT(%s) failed\00", align 1
@.str.24 = private unnamed_addr constant [77 x i8] c"(int)sched->hash_set.size >= measure_graph->n_nodes + measure_graph->n_leafs\00", align 1

; Function Attrs: mustprogress uwtable
define void @ggml_backend_synchronize(ptr noundef %0) #0 {
  %2 = alloca ptr, align 8
  store ptr %0, ptr %2, align 8, !tbaa !56
  %3 = load ptr, ptr %2, align 8, !tbaa !56
  %4 = getelementptr inbounds nuw %struct.ggml_backend, ptr %3, i32 0, i32 1
  %5 = getelementptr inbounds nuw %struct.ggml_backend_i, ptr %4, i32 0, i32 5
  %6 = load ptr, ptr %5, align 8, !tbaa !76
  %7 = icmp eq ptr %6, null
  br i1 %7, label %8, label %9

8:                                                ; preds = %1
  br label %15

9:                                                ; preds = %1
  %10 = load ptr, ptr %2, align 8, !tbaa !56
  %11 = getelementptr inbounds nuw %struct.ggml_backend, ptr %10, i32 0, i32 1
  %12 = getelementptr inbounds nuw %struct.ggml_backend_i, ptr %11, i32 0, i32 5
  %13 = load ptr, ptr %12, align 8, !tbaa !76
  %14 = load ptr, ptr %2, align 8, !tbaa !56
  call void %13(ptr noundef %14)
  br label %15

15:                                               ; preds = %9, %8
  ret void
}

; Function Attrs: mustprogress uwtable
define void @ggml_backend_sched_reset(ptr noundef %0) #0 {
  %2 = alloca ptr, align 8
  store ptr %0, ptr %2, align 8, !tbaa !131
  %3 = load ptr, ptr %2, align 8, !tbaa !131
  %4 = getelementptr inbounds nuw %struct.ggml_backend_sched, ptr %3, i32 0, i32 0
  %5 = load i8, ptr %4, align 8, !tbaa !164, !range !144, !noundef !145
  %6 = trunc i8 %5 to i1
  br i1 %6, label %38, label %7

7:                                                ; preds = %1
  %8 = load ptr, ptr %2, align 8, !tbaa !131
  %9 = getelementptr inbounds nuw %struct.ggml_backend_sched, ptr %8, i32 0, i32 6
  call void @ggml_hash_set_reset(ptr noundef %9)
  %10 = load ptr, ptr %2, align 8, !tbaa !131
  %11 = getelementptr inbounds nuw %struct.ggml_backend_sched, ptr %10, i32 0, i32 7
  %12 = load ptr, ptr %11, align 8, !tbaa !151
  %13 = load ptr, ptr %2, align 8, !tbaa !131
  %14 = getelementptr inbounds nuw %struct.ggml_backend_sched, ptr %13, i32 0, i32 6
  %15 = getelementptr inbounds nuw %struct.ggml_hash_set, ptr %14, i32 0, i32 0
  %16 = load i64, ptr %15, align 8, !tbaa !150
  %17 = mul i64 %16, 4
  call void @llvm.memset.p0.i64(ptr align 4 %12, i8 -1, i64 %17, i1 false)
  %18 = load ptr, ptr %2, align 8, !tbaa !131
  %19 = getelementptr inbounds nuw %struct.ggml_backend_sched, ptr %18, i32 0, i32 8
  %20 = load ptr, ptr %19, align 8, !tbaa !152
  %21 = load ptr, ptr %2, align 8, !tbaa !131
  %22 = getelementptr inbounds nuw %struct.ggml_backend_sched, ptr %21, i32 0, i32 6
  %23 = getelementptr inbounds nuw %struct.ggml_hash_set, ptr %22, i32 0, i32 0
  %24 = load i64, ptr %23, align 8, !tbaa !150
  %25 = load ptr, ptr %2, align 8, !tbaa !131
  %26 = getelementptr inbounds nuw %struct.ggml_backend_sched, ptr %25, i32 0, i32 2
  %27 = load i32, ptr %26, align 4, !tbaa !143
  %28 = sext i32 %27 to i64
  %29 = mul i64 %24, %28
  %30 = load ptr, ptr %2, align 8, !tbaa !131
  %31 = getelementptr inbounds nuw %struct.ggml_backend_sched, ptr %30, i32 0, i32 17
  %32 = load i32, ptr %31, align 8, !tbaa !146
  %33 = sext i32 %32 to i64
  %34 = mul i64 %29, %33
  %35 = mul i64 %34, 8
  call void @llvm.memset.p0.i64(ptr align 8 %20, i8 0, i64 %35, i1 false)
  %36 = load ptr, ptr %2, align 8, !tbaa !131
  %37 = getelementptr inbounds nuw %struct.ggml_backend_sched, ptr %36, i32 0, i32 0
  store i8 1, ptr %37, align 8, !tbaa !164
  br label %38

38:                                               ; preds = %7, %1
  %39 = load ptr, ptr %2, align 8, !tbaa !131
  %40 = getelementptr inbounds nuw %struct.ggml_backend_sched, ptr %39, i32 0, i32 1
  store i8 0, ptr %40, align 1, !tbaa !165
  ret void
}

; Function Attrs: mustprogress uwtable
define void @ggml_backend_sched_synchronize(ptr noundef %0) #0 {
  %2 = alloca ptr, align 8
  %3 = alloca i32, align 4
  store ptr %0, ptr %2, align 8, !tbaa !131
  call void @llvm.lifetime.start.p0(i64 4, ptr %3) #15
  store i32 0, ptr %3, align 4, !tbaa !89
  br label %4

4:                                                ; preds = %18, %1
  %5 = load i32, ptr %3, align 4, !tbaa !89
  %6 = load ptr, ptr %2, align 8, !tbaa !131
  %7 = getelementptr inbounds nuw %struct.ggml_backend_sched, ptr %6, i32 0, i32 2
  %8 = load i32, ptr %7, align 4, !tbaa !143
  %9 = icmp slt i32 %5, %8
  br i1 %9, label %11, label %10

10:                                               ; preds = %4
  call void @llvm.lifetime.end.p0(i64 4, ptr %3) #15
  br label %21

11:                                               ; preds = %4
  %12 = load ptr, ptr %2, align 8, !tbaa !131
  %13 = getelementptr inbounds nuw %struct.ggml_backend_sched, ptr %12, i32 0, i32 3
  %14 = load i32, ptr %3, align 4, !tbaa !89
  %15 = sext i32 %14 to i64
  %16 = getelementptr inbounds [16 x ptr], ptr %13, i64 0, i64 %15
  %17 = load ptr, ptr %16, align 8, !tbaa !56
  call void @ggml_backend_synchronize(ptr noundef %17)
  br label %18

18:                                               ; preds = %11
  %19 = load i32, ptr %3, align 4, !tbaa !89
  %20 = add nsw i32 %19, 1
  store i32 %20, ptr %3, align 4, !tbaa !89
  br label %4, !llvm.loop !224

21:                                               ; preds = %10
  ret void
}

; Function Attrs: mustprogress uwtable
define zeroext i1 @ggml_backend_sched_reserve(ptr noundef %0, ptr noundef %1) #0 {
  %3 = alloca i1, align 1
  %4 = alloca ptr, align 8
  %5 = alloca ptr, align 8
  store ptr %0, ptr %4, align 8, !tbaa !131
  store ptr %1, ptr %5, align 8, !tbaa !77
  %6 = load ptr, ptr %4, align 8, !tbaa !131
  %7 = getelementptr inbounds nuw %struct.ggml_backend_sched, ptr %6, i32 0, i32 6
  %8 = getelementptr inbounds nuw %struct.ggml_hash_set, ptr %7, i32 0, i32 0
  %9 = load i64, ptr %8, align 8, !tbaa !150
  %10 = trunc i64 %9 to i32
  %11 = load ptr, ptr %5, align 8, !tbaa !77
  %12 = getelementptr inbounds nuw %struct.ggml_cgraph, ptr %11, i32 0, i32 1
  %13 = load i32, ptr %12, align 4, !tbaa !171
  %14 = load ptr, ptr %5, align 8, !tbaa !77
  %15 = getelementptr inbounds nuw %struct.ggml_cgraph, ptr %14, i32 0, i32 2
  %16 = load i32, ptr %15, align 8, !tbaa !172
  %17 = add nsw i32 %13, %16
  %18 = icmp sge i32 %10, %17
  br i1 %18, label %20, label %19

19:                                               ; preds = %2
  call void (ptr, i32, ptr, ...) @ggml_abort(ptr noundef @.str, i32 noundef 1541, ptr noundef @.str.1, ptr noundef @.str.24) #18
  unreachable

20:                                               ; preds = %2
  %21 = load ptr, ptr %4, align 8, !tbaa !131
  %22 = load ptr, ptr %5, align 8, !tbaa !77
  call void @_ZL30ggml_backend_sched_split_graphP18ggml_backend_schedP11ggml_cgraph(ptr noundef %21, ptr noundef %22)
  %23 = load ptr, ptr %4, align 8, !tbaa !131
  call void @ggml_backend_sched_synchronize(ptr noundef %23)
  %24 = load ptr, ptr %4, align 8, !tbaa !131
  %25 = getelementptr inbounds nuw %struct.ggml_backend_sched, ptr %24, i32 0, i32 5
  %26 = load ptr, ptr %25, align 8, !tbaa !163
  %27 = load ptr, ptr %4, align 8, !tbaa !131
  %28 = getelementptr inbounds nuw %struct.ggml_backend_sched, ptr %27, i32 0, i32 13
  %29 = load ptr, ptr %4, align 8, !tbaa !131
  %30 = getelementptr inbounds nuw %struct.ggml_backend_sched, ptr %29, i32 0, i32 9
  %31 = load ptr, ptr %30, align 8, !tbaa !153
  %32 = load ptr, ptr %4, align 8, !tbaa !131
  %33 = getelementptr inbounds nuw %struct.ggml_backend_sched, ptr %32, i32 0, i32 10
  %34 = load ptr, ptr %33, align 8, !tbaa !154
  %35 = call zeroext i1 @ggml_gallocr_reserve_n(ptr noundef %26, ptr noundef %28, ptr noundef %31, ptr noundef %34)
  br i1 %35, label %37, label %36

36:                                               ; preds = %20
  store i1 false, ptr %3, align 1
  br label %39

37:                                               ; preds = %20
  %38 = load ptr, ptr %4, align 8, !tbaa !131
  call void @ggml_backend_sched_reset(ptr noundef %38)
  store i1 true, ptr %3, align 1
  br label %39

39:                                               ; preds = %37, %36
  %40 = load i1, ptr %3, align 1
  ret i1 %40
}