; Function Attrs: mustprogress uwtable
define noundef zeroext i1 @ggml_backend_sched_reserve(ptr noundef %0, ptr noundef %1) local_unnamed_addr #0 {
  %3 = getelementptr inbounds nuw i8, ptr %0, i64 272
  %4 = load i64, ptr %3, align 8, !tbaa !120
  %5 = trunc i64 %4 to i32
  %6 = getelementptr inbounds nuw i8, ptr %1, i64 4
  %7 = load i32, ptr %6, align 4, !tbaa !147
  %8 = getelementptr inbounds nuw i8, ptr %1, i64 8
  %9 = load i32, ptr %8, align 8, !tbaa !148
  %10 = add nsw i32 %9, %7
  %.not = icmp sgt i32 %10, %5
  br i1 %.not, label %11, label %12

11:                                               ; preds = %2
  tail call void (ptr, i32, ptr, ...) @ggml_abort(ptr noundef nonnull @.str, i32 noundef 1541, ptr noundef nonnull @.str.1, ptr noundef nonnull @.str.24) #24
  unreachable

12:                                               ; preds = %2
  tail call fastcc void @_ZL30ggml_backend_sched_split_graphP18ggml_backend_schedP11ggml_cgraph(ptr noundef nonnull %0, ptr noundef nonnull %1)
  %13 = getelementptr inbounds nuw i8, ptr %0, i64 4
  %14 = load i32, ptr %13, align 4, !tbaa !115
  %15 = icmp sgt i32 %14, 0
  br i1 %15, label %.lr.ph.i, label %ggml_backend_sched_synchronize.exit

.lr.ph.i:                                         ; preds = %12
  %16 = getelementptr inbounds nuw i8, ptr %0, i64 8
  br label %17

17:                                               ; preds = %ggml_backend_synchronize.exit.i, %.lr.ph.i
  %18 = phi i32 [ %14, %.lr.ph.i ], [ %25, %ggml_backend_synchronize.exit.i ]
  %indvars.iv.i = phi i64 [ 0, %.lr.ph.i ], [ %indvars.iv.next.i, %ggml_backend_synchronize.exit.i ]
  %19 = getelementptr inbounds nuw [16 x ptr], ptr %16, i64 0, i64 %indvars.iv.i
  %20 = load ptr, ptr %19, align 8, !tbaa !102
  %21 = getelementptr inbounds nuw i8, ptr %20, i64 48
  %22 = load ptr, ptr %21, align 8, !tbaa !66
  %23 = icmp eq ptr %22, null
  br i1 %23, label %ggml_backend_synchronize.exit.i, label %24

24:                                               ; preds = %17
  tail call void %22(ptr noundef nonnull %20)
  %.pre.i = load i32, ptr %13, align 4, !tbaa !115
  br label %ggml_backend_synchronize.exit.i

ggml_backend_synchronize.exit.i:                  ; preds = %24, %17
  %25 = phi i32 [ %18, %17 ], [ %.pre.i, %24 ]
  %indvars.iv.next.i = add nuw nsw i64 %indvars.iv.i, 1
  %26 = sext i32 %25 to i64
  %27 = icmp slt i64 %indvars.iv.next.i, %26
  br i1 %27, label %17, label %ggml_backend_sched_synchronize.exit, !llvm.loop !149

ggml_backend_sched_synchronize.exit:              ; preds = %ggml_backend_synchronize.exit.i, %12
  %28 = getelementptr inbounds nuw i8, ptr %0, i64 264
  %29 = load ptr, ptr %28, align 8, !tbaa !131
  %30 = getelementptr inbounds nuw i8, ptr %0, i64 344
  %31 = getelementptr inbounds nuw i8, ptr %0, i64 312
  %32 = load ptr, ptr %31, align 8, !tbaa !123
  %33 = getelementptr inbounds nuw i8, ptr %0, i64 320
  %34 = load ptr, ptr %33, align 8, !tbaa !124
  %35 = tail call zeroext i1 @ggml_gallocr_reserve_n(ptr noundef %29, ptr noundef nonnull %30, ptr noundef %32, ptr noundef %34)
  br i1 %35, label %36, label %56

36:                                               ; preds = %ggml_backend_sched_synchronize.exit
  %37 = load i8, ptr %0, align 8, !tbaa !132, !range !133, !noundef !134
  %38 = trunc nuw i8 %37 to i1
  br i1 %38, label %ggml_backend_sched_reset.exit, label %39

39:                                               ; preds = %36
  tail call void @ggml_hash_set_reset(ptr noundef nonnull %3)
  %40 = getelementptr inbounds nuw i8, ptr %0, i64 296
  %41 = load ptr, ptr %40, align 8, !tbaa !121
  %42 = load i64, ptr %3, align 8, !tbaa !120
  %43 = shl i64 %42, 2
  tail call void @llvm.memset.p0.i64(ptr align 4 %41, i8 -1, i64 %43, i1 false)
  %44 = getelementptr inbounds nuw i8, ptr %0, i64 304
  %45 = load ptr, ptr %44, align 8, !tbaa !122
  %46 = load i64, ptr %3, align 8, !tbaa !120
  %47 = load i32, ptr %13, align 4, !tbaa !115
  %48 = sext i32 %47 to i64
  %49 = getelementptr inbounds nuw i8, ptr %0, i64 440
  %50 = load i32, ptr %49, align 8, !tbaa !116
  %51 = sext i32 %50 to i64
  %52 = shl i64 %46, 3
  %53 = mul i64 %52, %48
  %54 = mul i64 %53, %51
  tail call void @llvm.memset.p0.i64(ptr align 8 %45, i8 0, i64 %54, i1 false)
  store i8 1, ptr %0, align 8, !tbaa !132
  br label %ggml_backend_sched_reset.exit

ggml_backend_sched_reset.exit:                    ; preds = %36, %39
  %55 = getelementptr inbounds nuw i8, ptr %0, i64 1
  store i8 0, ptr %55, align 1, !tbaa !135
  br label %56

56:                                               ; preds = %ggml_backend_sched_synchronize.exit, %ggml_backend_sched_reset.exit
  ret i1 %35
}